; Function Attrs: mustprogress nounwind uwtable
define void @_ZN10TimerGroupD2Ev(ptr noundef nonnull align 8 dereferenceable(56) %0) unnamed_addr #4 align 2 personality ptr @__gxx_personality_v0 {
  %2 = getelementptr inbounds nuw i8, ptr %0, i64 24
  tail call void @_ZNSt7__cxx1112basic_stringIcSt11char_traitsIcESaIcEED1Ev(ptr noundef nonnull align 8 dereferenceable(32) %2) #15
  %3 = load ptr, ptr %0, align 8
  %4 = getelementptr inbounds nuw i8, ptr %0, i64 8
  %5 = load ptr, ptr %4, align 8
  %.not4.i.i.i.i = icmp eq ptr %3, %5
  br i1 %.not4.i.i.i.i, label %_ZSt8_DestroyIP5TimerS0_EvT_S2_RSaIT0_E.exit.i, label %.lr.ph.i.i.i.i

.lr.ph.i.i.i.i:                                   ; preds = %1, %.lr.ph.i.i.i.i
  %.05.i.i.i.i = phi ptr [ %6, %.lr.ph.i.i.i.i ], [ %3, %1 ]
  tail call void @_ZN5TimerD1Ev(ptr noundef nonnull align 8 dereferenceable(72) %.05.i.i.i.i) #15
  %6 = getelementptr inbounds i8, ptr %.05.i.i.i.i, i64 72
  %.not.i.i.i.i = icmp eq ptr %6, %5
  br i1 %.not.i.i.i.i, label %_ZSt8_DestroyIP5TimerS0_EvT_S2_RSaIT0_E.exitthread-pre-split.i, label %.lr.ph.i.i.i.i, !llvm.loop !4

_ZSt8_DestroyIP5TimerS0_EvT_S2_RSaIT0_E.exitthread-pre-split.i: ; preds = %.lr.ph.i.i.i.i
  %.pr.i = load ptr, ptr %0, align 8
  br label %_ZSt8_DestroyIP5TimerS0_EvT_S2_RSaIT0_E.exit.i

_ZSt8_DestroyIP5TimerS0_EvT_S2_RSaIT0_E.exit.i:   ; preds = %_ZSt8_DestroyIP5TimerS0_EvT_S2_RSaIT0_E.exitthread-pre-split.i, %1
  %7 = phi ptr [ %.pr.i, %_ZSt8_DestroyIP5TimerS0_EvT_S2_RSaIT0_E.exitthread-pre-split.i ], [ %3, %1 ]
  %.not.i.i.i = icmp eq ptr %7, null
  br i1 %.not.i.i.i, label %_ZNSt6vectorI5TimerSaIS0_EED2Ev.exit, label %8

8:                                                ; preds = %_ZSt8_DestroyIP5TimerS0_EvT_S2_RSaIT0_E.exit.i
  %9 = getelementptr inbounds nuw i8, ptr %0, i64 16
  %10 = load ptr, ptr %9, align 8
  %11 = ptrtoint ptr %10 to i64
  %12 = ptrtoint ptr %7 to i64
  %13 = sub i64 %11, %12
  tail call void @_ZdlPvm(ptr noundef nonnull %7, i64 noundef %13) #16
  br label %_ZNSt6vectorI5TimerSaIS0_EED2Ev.exit

_ZNSt6vectorI5TimerSaIS0_EED2Ev.exit:             ; preds = %_ZSt8_DestroyIP5TimerS0_EvT_S2_RSaIT0_E.exit.i, %8
  ret void
}